; Function Attrs: mustprogress uwtable
define void @_ZN3gmx8internal28AnalysisDataStorageFrameData10clearFrameEi(ptr nocapture noundef nonnull align 8 dereferenceable(84) %0, i32 noundef %1) local_unnamed_addr #1 align 2 personality ptr @__gxx_personality_v0 {
  %3 = alloca %"class.gmx::AnalysisDataFrameHeader", align 4
  %4 = getelementptr inbounds i8, ptr %0, i64 72
  %5 = load ptr, ptr %4, align 8
  %.not = icmp eq ptr %5, null
  br i1 %.not, label %7, label %6

6:                                                ; preds = %2
  tail call void @_ZN3gmx8internal13assertHandlerEPKcS2_S2_S2_i(ptr noundef nonnull @.str.21, ptr noundef nonnull @.str.22, ptr noundef nonnull @"__PRETTY_FUNCTION__._ZZN3gmx8internal28AnalysisDataStorageFrameData10clearFrameEiENK3$_0clEv", ptr noundef nonnull @.str.2, i32 noundef 559) #19
  unreachable

7:                                                ; preds = %2
  %8 = getelementptr inbounds i8, ptr %0, i64 80
  store i32 0, ptr %8, align 8
  call void @_ZN3gmx23AnalysisDataFrameHeaderC1Eiff(ptr noundef nonnull align 4 dereferenceable(12) %3, i32 noundef %1, float noundef 0.000000e+00, float noundef 0.000000e+00)
  %9 = getelementptr inbounds i8, ptr %0, i64 8
  call void @llvm.memcpy.p0.p0.i64(ptr noundef nonnull align 8 dereferenceable(12) %9, ptr noundef nonnull align 4 dereferenceable(12) %3, i64 12, i1 false)
  %10 = getelementptr inbounds i8, ptr %0, i64 24
  %11 = load ptr, ptr %10, align 8
  %12 = getelementptr inbounds i8, ptr %0, i64 32
  %13 = load ptr, ptr %12, align 8
  %.not.i.i = icmp eq ptr %13, %11
  br i1 %.not.i.i, label %_ZNSt6vectorIN3gmx17AnalysisDataValueESaIS1_EE5clearEv.exit, label %14

14:                                               ; preds = %7
  store ptr %11, ptr %12, align 8
  br label %_ZNSt6vectorIN3gmx17AnalysisDataValueESaIS1_EE5clearEv.exit

_ZNSt6vectorIN3gmx17AnalysisDataValueESaIS1_EE5clearEv.exit: ; preds = %7, %14
  %15 = load ptr, ptr %0, align 8
  %16 = load ptr, ptr %15, align 8
  %17 = call noundef zeroext i1 @_ZNK3gmx20AbstractAnalysisData12isMultipointEv(ptr noundef nonnull align 8 dereferenceable(16) %16)
  br i1 %17, label %18, label %_ZNSt6vectorIN3gmx24AnalysisDataPointSetInfoESaIS1_EE5clearEv.exit

18:                                               ; preds = %_ZNSt6vectorIN3gmx17AnalysisDataValueESaIS1_EE5clearEv.exit
  %19 = getelementptr inbounds i8, ptr %0, i64 48
  %20 = load ptr, ptr %19, align 8
  %21 = getelementptr inbounds i8, ptr %0, i64 56
  %22 = load ptr, ptr %21, align 8
  %.not.i.i1 = icmp eq ptr %22, %20
  br i1 %.not.i.i1, label %_ZNSt6vectorIN3gmx24AnalysisDataPointSetInfoESaIS1_EE5clearEv.exit, label %23

23:                                               ; preds = %18
  store ptr %20, ptr %21, align 8
  br label %_ZNSt6vectorIN3gmx24AnalysisDataPointSetInfoESaIS1_EE5clearEv.exit

_ZNSt6vectorIN3gmx24AnalysisDataPointSetInfoESaIS1_EE5clearEv.exit: ; preds = %23, %18, %_ZNSt6vectorIN3gmx17AnalysisDataValueESaIS1_EE5clearEv.exit
  ret void
}